; Function Attrs: uwtable
define internal noundef i32 @_ZThn32_NK7rocksdb12_GLOBAL__N_123ComparatorWithU64TsImplINS0_22BytewiseComparatorImplEE7CompareERKNS_5SliceES6_(ptr noundef %0, ptr noundef nonnull align 8 dereferenceable(16) %1, ptr noundef nonnull align 8 dereferenceable(16) %2) unnamed_addr #19 align 2 {
  %4 = alloca %"class.rocksdb::Slice", align 8
  %5 = alloca %"class.rocksdb::Slice", align 8
  %6 = getelementptr inbounds i8, ptr %0, i64 -32
  %7 = load ptr, ptr %6, align 8, !tbaa !19
  %8 = getelementptr inbounds nuw i8, ptr %7, i64 232
  %9 = load ptr, ptr %8, align 8
  %10 = tail call noundef i32 %9(ptr noundef nonnull align 8 dereferenceable(96) %6, ptr noundef nonnull align 8 dereferenceable(16) %1, i1 noundef zeroext true, ptr noundef nonnull align 8 dereferenceable(16) %2, i1 noundef zeroext true)
  %.not.i = icmp eq i32 %10, 0
  br i1 %.not.i, label %11, label %_ZNK7rocksdb12_GLOBAL__N_123ComparatorWithU64TsImplINS0_22BytewiseComparatorImplEE7CompareERKNS_5SliceES6_.exit

11:                                               ; preds = %3
  %12 = getelementptr inbounds nuw i8, ptr %0, i64 8
  %13 = load i64, ptr %12, align 8, !tbaa !5
  call void @llvm.lifetime.start.p0(i64 16, ptr nonnull %4) #27
  %14 = load ptr, ptr %1, align 8, !tbaa !32
  %15 = getelementptr inbounds nuw i8, ptr %1, i64 8
  %16 = load i64, ptr %15, align 8, !tbaa !29
  %17 = getelementptr inbounds nuw i8, ptr %14, i64 %16
  %18 = sub i64 0, %13
  %19 = getelementptr inbounds i8, ptr %17, i64 %18
  store ptr %19, ptr %4, align 8
  %20 = getelementptr inbounds nuw i8, ptr %4, i64 8
  store i64 %13, ptr %20, align 8
  call void @llvm.lifetime.start.p0(i64 16, ptr nonnull %5) #27
  %21 = load ptr, ptr %2, align 8, !tbaa !32
  %22 = getelementptr inbounds nuw i8, ptr %2, i64 8
  %23 = load i64, ptr %22, align 8, !tbaa !29
  %24 = getelementptr inbounds nuw i8, ptr %21, i64 %23
  %25 = getelementptr inbounds i8, ptr %24, i64 %18
  store ptr %25, ptr %5, align 8
  %26 = getelementptr inbounds nuw i8, ptr %5, i64 8
  store i64 %13, ptr %26, align 8
  %27 = load ptr, ptr %6, align 8, !tbaa !19
  %28 = getelementptr inbounds nuw i8, ptr %27, i64 224
  %29 = load ptr, ptr %28, align 8
  %30 = call noundef i32 %29(ptr noundef nonnull align 8 dereferenceable(96) %6, ptr noundef nonnull align 8 dereferenceable(16) %4, ptr noundef nonnull align 8 dereferenceable(16) %5)
  %31 = sub nsw i32 0, %30
  call void @llvm.lifetime.end.p0(i64 16, ptr nonnull %5) #27
  call void @llvm.lifetime.end.p0(i64 16, ptr nonnull %4) #27
  br label %_ZNK7rocksdb12_GLOBAL__N_123ComparatorWithU64TsImplINS0_22BytewiseComparatorImplEE7CompareERKNS_5SliceES6_.exit

_ZNK7rocksdb12_GLOBAL__N_123ComparatorWithU64TsImplINS0_22BytewiseComparatorImplEE7CompareERKNS_5SliceES6_.exit: ; preds = %3, %11
  %.0.i = phi i32 [ %31, %11 ], [ %10, %3 ]
  ret i32 %.0.i
}